target datalayout = "e-m:e-p270:32:32-p271:32:32-p272:64:64-i64:64-i128:128-f80:128-n8:16:32:64-S128"
target triple = "x86_64-pc-linux-gnu"

%struct.OutputPluginCallbacks = type { ptr, ptr, ptr, ptr, ptr, ptr, ptr, ptr, ptr, ptr, ptr, ptr, ptr, ptr, ptr, ptr, ptr, ptr, ptr, ptr, ptr }
%struct.LogicalDecodingContext = type { ptr, ptr, ptr, ptr, ptr, i8, %struct.OutputPluginCallbacks, %struct.OutputPluginOptions, ptr, ptr, ptr, ptr, ptr, ptr, ptr, i8, i8, i8, i8, i8, i64, i32, i8, i8 }
%struct.OutputPluginOptions = type { i32, i8 }
%struct.PGOutputData = type { ptr, ptr, ptr, i8, i32, ptr, ptr, i8, i8, i8, i8, i8 }
%struct.ReorderBufferTXN = type { i32, i32, i32, ptr, i64, i64, i64, ptr, i64, i16, i64, %union.anon, ptr, i64, %struct.dlist_node, ptr, i32, i64, i64, %struct.dlist_head, %struct.dlist_head, i64, ptr, ptr, %struct.dlist_head, i32, i32, ptr, %struct.dlist_node, %struct.dlist_node, %struct.pairingheap_node, i64, i64, ptr }
%union.anon = type { i64 }
%struct.dlist_head = type { %struct.dlist_node }
%struct.dlist_node = type { ptr, ptr }
%struct.pairingheap_node = type { ptr, ptr, ptr }
%struct.ReorderBufferChange = type { i64, i32, ptr, i16, %union.anon.0, %struct.dlist_node }
%union.anon.0 = type { %struct.anon }
%struct.anon = type { %struct.RelFileLocator, i8, ptr, ptr }
%struct.RelFileLocator = type { i32, i32, i32 }
%struct.RelationSyncEntry = type { i32, i8, i8, i32, ptr, %struct.PublicationActions, [3 x ptr], ptr, ptr, ptr, i32, ptr, ptr, ptr }
%struct.PublicationActions = type { i8, i8, i8, i8 }
%struct.RelationData = type { %struct.RelFileLocator, ptr, i32, i32, i8, i8, i8, i8, i8, i32, i32, i32, i32, ptr, ptr, i32, %struct.LockInfoData, ptr, ptr, ptr, ptr, ptr, i8, ptr, ptr, ptr, ptr, ptr, ptr, i32, ptr, i8, ptr, ptr, i32, i8, i32, ptr, i8, ptr, ptr, ptr, ptr, ptr, ptr, ptr, i32, ptr, ptr, ptr, ptr, ptr, ptr, ptr, ptr, ptr, ptr, ptr, ptr, ptr, ptr, ptr, ptr, ptr, ptr, ptr, i32, i8, ptr }
%struct.LockInfoData = type { %struct.LockRelId }
%struct.LockRelId = type { i32, i32 }
%struct.PGOutputTxnData = type { i8 }
%struct.FormData_pg_class = type { i32, %struct.nameData, i32, i32, i32, i32, i32, i32, i32, i32, float, i32, i32, i8, i8, i8, i8, i16, i16, i8, i8, i8, i8, i8, i8, i8, i8, i32, i32, i32 }
%struct.nameData = type { [64 x i8] }
%struct.anon.1 = type { i64, i8, i8, ptr }

@CurrentMemoryContext = external global ptr, align 8

; Function Attrs: inlinehint nounwind uwtable
define internal ptr @MemoryContextSwitchTo(ptr noundef %0) #8 {
  %2 = alloca ptr, align 8
  %3 = alloca ptr, align 8
  store ptr %0, ptr %2, align 8
  call void @llvm.lifetime.start.p0(i64 8, ptr %3) #10
  %4 = load ptr, ptr @CurrentMemoryContext, align 8
  store ptr %4, ptr %3, align 8
  %5 = load ptr, ptr %2, align 8
  store ptr %5, ptr @CurrentMemoryContext, align 8
  %6 = load ptr, ptr %3, align 8
  call void @llvm.lifetime.end.p0(i64 8, ptr %3) #10
  ret ptr %6
}

; Function Attrs: nounwind uwtable
define internal void @pgoutput_truncate(ptr noundef %0, ptr noundef %1, i32 noundef %2, ptr noundef %3, ptr noundef %4) #0 {
  %6 = alloca ptr, align 8
  %7 = alloca ptr, align 8
  %8 = alloca i32, align 4
  %9 = alloca ptr, align 8
  %10 = alloca ptr, align 8
  %11 = alloca ptr, align 8
  %12 = alloca ptr, align 8
  %13 = alloca ptr, align 8
  %14 = alloca ptr, align 8
  %15 = alloca i32, align 4
  %16 = alloca i32, align 4
  %17 = alloca ptr, align 8
  %18 = alloca i32, align 4
  %19 = alloca ptr, align 8
  %20 = alloca i32, align 4
  %21 = alloca i32, align 4
  store ptr %0, ptr %6, align 8
  store ptr %1, ptr %7, align 8
  store i32 %2, ptr %8, align 4
  store ptr %3, ptr %9, align 8
  store ptr %4, ptr %10, align 8
  call void @llvm.lifetime.start.p0(i64 8, ptr %11) #10
  %22 = load ptr, ptr %6, align 8
  %23 = getelementptr inbounds nuw %struct.LogicalDecodingContext, ptr %22, i32 0, i32 13
  %24 = load ptr, ptr %23, align 8
  store ptr %24, ptr %11, align 8
  call void @llvm.lifetime.start.p0(i64 8, ptr %12) #10
  %25 = load ptr, ptr %7, align 8
  %26 = getelementptr inbounds nuw %struct.ReorderBufferTXN, ptr %25, i32 0, i32 33
  %27 = load ptr, ptr %26, align 8
  store ptr %27, ptr %12, align 8
  call void @llvm.lifetime.start.p0(i64 8, ptr %13) #10
  call void @llvm.lifetime.start.p0(i64 8, ptr %14) #10
  call void @llvm.lifetime.start.p0(i64 4, ptr %15) #10
  call void @llvm.lifetime.start.p0(i64 4, ptr %16) #10
  call void @llvm.lifetime.start.p0(i64 8, ptr %17) #10
  call void @llvm.lifetime.start.p0(i64 4, ptr %18) #10
  store i32 0, ptr %18, align 4
  %28 = load ptr, ptr %11, align 8
  %29 = getelementptr inbounds nuw %struct.PGOutputData, ptr %28, i32 0, i32 3
  %30 = load i8, ptr %29, align 8, !range !3, !noundef !4
  %31 = trunc i8 %30 to i1
  br i1 %31, label %32, label %38

32:                                               ; preds = %5
  %33 = load ptr, ptr %10, align 8
  %34 = getelementptr inbounds nuw %struct.ReorderBufferChange, ptr %33, i32 0, i32 2
  %35 = load ptr, ptr %34, align 8
  %36 = getelementptr inbounds nuw %struct.ReorderBufferTXN, ptr %35, i32 0, i32 1
  %37 = load i32, ptr %36, align 4
  store i32 %37, ptr %18, align 4
  br label %38

38:                                               ; preds = %32, %5
  %39 = load ptr, ptr %11, align 8
  %40 = getelementptr inbounds nuw %struct.PGOutputData, ptr %39, i32 0, i32 0
  %41 = load ptr, ptr %40, align 8
  %42 = call ptr @MemoryContextSwitchTo(ptr noundef %41)
  store ptr %42, ptr %13, align 8
  %43 = load i32, ptr %8, align 4
  %44 = sext i32 %43 to i64
  %45 = mul i64 %44, 4
  %46 = call ptr @palloc0(i64 noundef %45)
  store ptr %46, ptr %17, align 8
  store i32 0, ptr %16, align 4
  store i32 0, ptr %15, align 4
  br label %47

47:                                               ; preds = %112, %38
  %48 = load i32, ptr %15, align 4
  %49 = load i32, ptr %8, align 4
  %50 = icmp slt i32 %48, %49
  br i1 %50, label %51, label %115

51:                                               ; preds = %47
  call void @llvm.lifetime.start.p0(i64 8, ptr %19) #10
  %52 = load ptr, ptr %9, align 8
  %53 = load i32, ptr %15, align 4
  %54 = sext i32 %53 to i64
  %55 = getelementptr inbounds ptr, ptr %52, i64 %54
  %56 = load ptr, ptr %55, align 8
  store ptr %56, ptr %19, align 8
  call void @llvm.lifetime.start.p0(i64 4, ptr %20) #10
  %57 = load ptr, ptr %19, align 8
  %58 = getelementptr inbounds nuw %struct.RelationData, ptr %57, i32 0, i32 15
  %59 = load i32, ptr %58, align 8
  store i32 %59, ptr %20, align 4
  %60 = load ptr, ptr %19, align 8
  %61 = call zeroext i1 @is_publishable_relation(ptr noundef %60)
  br i1 %61, label %63, label %62

62:                                               ; preds = %51
  store i32 4, ptr %21, align 4
  br label %109

63:                                               ; preds = %51
  %64 = load ptr, ptr %11, align 8
  %65 = load ptr, ptr %19, align 8
  %66 = call ptr @get_rel_sync_entry(ptr noundef %64, ptr noundef %65)
  store ptr %66, ptr %14, align 8
  %67 = load ptr, ptr %14, align 8
  %68 = getelementptr inbounds nuw %struct.RelationSyncEntry, ptr %67, i32 0, i32 5
  %69 = getelementptr inbounds nuw %struct.PublicationActions, ptr %68, i32 0, i32 3
  %70 = load i8, ptr %69, align 1, !range !3, !noundef !4
  %71 = trunc i8 %70 to i1
  br i1 %71, label %73, label %72

72:                                               ; preds = %63
  store i32 4, ptr %21, align 4
  br label %109

73:                                               ; preds = %63
  %74 = load ptr, ptr %19, align 8
  %75 = getelementptr inbounds nuw %struct.RelationData, ptr %74, i32 0, i32 13
  %76 = load ptr, ptr %75, align 8
  %77 = getelementptr inbounds nuw %struct.FormData_pg_class, ptr %76, i32 0, i32 26
  %78 = load i8, ptr %77, align 1, !range !3, !noundef !4
  %79 = trunc i8 %78 to i1
  br i1 %79, label %80, label %87

80:                                               ; preds = %73
  %81 = load ptr, ptr %14, align 8
  %82 = getelementptr inbounds nuw %struct.RelationSyncEntry, ptr %81, i32 0, i32 10
  %83 = load i32, ptr %82, align 8
  %84 = load i32, ptr %20, align 4
  %85 = icmp ne i32 %83, %84
  br i1 %85, label %86, label %87

86:                                               ; preds = %80
  store i32 4, ptr %21, align 4
  br label %109

87:                                               ; preds = %80, %73
  %88 = load i32, ptr %20, align 4
  %89 = load ptr, ptr %17, align 8
  %90 = load i32, ptr %16, align 4
  %91 = add i32 %90, 1
  store i32 %91, ptr %16, align 4
  %92 = sext i32 %90 to i64
  %93 = getelementptr inbounds i32, ptr %89, i64 %92
  store i32 %88, ptr %93, align 4
  %94 = load ptr, ptr %12, align 8
  %95 = icmp ne ptr %94, null
  br i1 %95, label %96, label %104

96:                                               ; preds = %87
  %97 = load ptr, ptr %12, align 8
  %98 = getelementptr inbounds nuw %struct.PGOutputTxnData, ptr %97, i32 0, i32 0
  %99 = load i8, ptr %98, align 1, !range !3, !noundef !4
  %100 = trunc i8 %99 to i1
  br i1 %100, label %104, label %101

101:                                              ; preds = %96
  %102 = load ptr, ptr %6, align 8
  %103 = load ptr, ptr %7, align 8
  call void @pgoutput_send_begin(ptr noundef %102, ptr noundef %103)
  br label %104

104:                                              ; preds = %101, %96, %87
  %105 = load ptr, ptr %6, align 8
  %106 = load ptr, ptr %10, align 8
  %107 = load ptr, ptr %19, align 8
  %108 = load ptr, ptr %14, align 8
  call void @maybe_send_schema(ptr noundef %105, ptr noundef %106, ptr noundef %107, ptr noundef %108)
  store i32 0, ptr %21, align 4
  br label %109

109:                                              ; preds = %104, %86, %72, %62
  call void @llvm.lifetime.end.p0(i64 4, ptr %20) #10
  call void @llvm.lifetime.end.p0(i64 8, ptr %19) #10
  %110 = load i32, ptr %21, align 4
  switch i32 %110, label %143 [
    i32 0, label %111
    i32 4, label %112
  ]

111:                                              ; preds = %109
  br label %112

112:                                              ; preds = %111, %109
  %113 = load i32, ptr %15, align 4
  %114 = add i32 %113, 1
  store i32 %114, ptr %15, align 4
  br label %47, !llvm.loop !5

115:                                              ; preds = %47
  %116 = load i32, ptr %16, align 4
  %117 = icmp sgt i32 %116, 0
  br i1 %117, label %118, label %137

118:                                              ; preds = %115
  %119 = load ptr, ptr %6, align 8
  call void @OutputPluginPrepareWrite(ptr noundef %119, i1 noundef zeroext true)
  %120 = load ptr, ptr %6, align 8
  %121 = getelementptr inbounds nuw %struct.LogicalDecodingContext, ptr %120, i32 0, i32 12
  %122 = load ptr, ptr %121, align 8
  %123 = load i32, ptr %18, align 4
  %124 = load i32, ptr %16, align 4
  %125 = load ptr, ptr %17, align 8
  %126 = load ptr, ptr %10, align 8
  %127 = getelementptr inbounds nuw %struct.ReorderBufferChange, ptr %126, i32 0, i32 4
  %128 = getelementptr inbounds nuw %struct.anon.1, ptr %127, i32 0, i32 1
  %129 = load i8, ptr %128, align 8, !range !3, !noundef !4
  %130 = trunc i8 %129 to i1
  %131 = load ptr, ptr %10, align 8
  %132 = getelementptr inbounds nuw %struct.ReorderBufferChange, ptr %131, i32 0, i32 4
  %133 = getelementptr inbounds nuw %struct.anon.1, ptr %132, i32 0, i32 2
  %134 = load i8, ptr %133, align 1, !range !3, !noundef !4
  %135 = trunc i8 %134 to i1
  call void @logicalrep_write_truncate(ptr noundef %122, i32 noundef %123, i32 noundef %124, ptr noundef %125, i1 noundef zeroext %130, i1 noundef zeroext %135)
  %136 = load ptr, ptr %6, align 8
  call void @OutputPluginWrite(ptr noundef %136, i1 noundef zeroext true)
  br label %137

137:                                              ; preds = %118, %115
  %138 = load ptr, ptr %13, align 8
  %139 = call ptr @MemoryContextSwitchTo(ptr noundef %138)
  %140 = load ptr, ptr %11, align 8
  %141 = getelementptr inbounds nuw %struct.PGOutputData, ptr %140, i32 0, i32 0
  %142 = load ptr, ptr %141, align 8
  call void @MemoryContextReset(ptr noundef %142)
  call void @llvm.lifetime.end.p0(i64 4, ptr %18) #10
  call void @llvm.lifetime.end.p0(i64 8, ptr %17) #10
  call void @llvm.lifetime.end.p0(i64 4, ptr %16) #10
  call void @llvm.lifetime.end.p0(i64 4, ptr %15) #10
  call void @llvm.lifetime.end.p0(i64 8, ptr %14) #10
  call void @llvm.lifetime.end.p0(i64 8, ptr %13) #10
  call void @llvm.lifetime.end.p0(i64 8, ptr %12) #10
  call void @llvm.lifetime.end.p0(i64 8, ptr %11) #10
  ret void

143:                                              ; preds = %109
  unreachable
}