; Function Attrs: nounwind uwtable
define internal void @pgoutput_truncate(ptr noundef %0, ptr noundef %1, i32 noundef %2, ptr noundef readonly captures(none) %3, ptr noundef readonly captures(none) %4) #2 {
  %6 = getelementptr inbounds nuw i8, ptr %0, i64 264
  %7 = load ptr, ptr %6, align 8
  %8 = getelementptr inbounds nuw i8, ptr %1, i64 312
  %9 = load ptr, ptr %8, align 8
  %.fr = freeze ptr %9
  %10 = getelementptr inbounds nuw i8, ptr %7, i64 24
  %11 = load i8, ptr %10, align 8, !range !3, !noundef !4
  %12 = trunc nuw i8 %11 to i1
  br i1 %12, label %13, label %18

13:                                               ; preds = %5
  %14 = getelementptr inbounds nuw i8, ptr %4, i64 16
  %15 = load ptr, ptr %14, align 8
  %16 = getelementptr inbounds nuw i8, ptr %15, i64 4
  %17 = load i32, ptr %16, align 4
  br label %18

18:                                               ; preds = %13, %5
  %.041 = phi i32 [ %17, %13 ], [ 0, %5 ]
  %19 = load ptr, ptr %7, align 8
  %20 = load ptr, ptr @CurrentMemoryContext, align 8
  store ptr %19, ptr @CurrentMemoryContext, align 8
  %21 = sext i32 %2 to i64
  %22 = shl nsw i64 %21, 2
  %23 = tail call ptr @palloc0(i64 noundef %22) #13
  %24 = icmp sgt i32 %2, 0
  br i1 %24, label %.lr.ph, label %._crit_edge.thread

.lr.ph:                                           ; preds = %18
  %.not43 = icmp eq ptr %.fr, null
  %wide.trip.count51 = zext nneg i32 %2 to i64
  br i1 %.not43, label %.lr.ph.split.us, label %.lr.ph.split

.lr.ph.split.us:                                  ; preds = %.lr.ph, %48
  %indvars.iv48 = phi i64 [ %indvars.iv.next49, %48 ], [ 0, %.lr.ph ]
  %.04044.us = phi i32 [ %.1.us, %48 ], [ 0, %.lr.ph ]
  %25 = getelementptr inbounds nuw ptr, ptr %3, i64 %indvars.iv48
  %26 = load ptr, ptr %25, align 8
  %27 = getelementptr inbounds nuw i8, ptr %26, i64 72
  %28 = load i32, ptr %27, align 8
  %29 = tail call zeroext i1 @is_publishable_relation(ptr noundef %26) #13
  br i1 %29, label %30, label %48

30:                                               ; preds = %.lr.ph.split.us
  %31 = tail call fastcc ptr @get_rel_sync_entry(ptr noundef nonnull %7, ptr noundef nonnull %26)
  %32 = getelementptr inbounds nuw i8, ptr %31, i64 27
  %33 = load i8, ptr %32, align 1, !range !3, !noundef !4
  %34 = trunc nuw i8 %33 to i1
  br i1 %34, label %35, label %48

35:                                               ; preds = %30
  %36 = getelementptr inbounds nuw i8, ptr %26, i64 56
  %37 = load ptr, ptr %36, align 8
  %38 = getelementptr inbounds nuw i8, ptr %37, i64 127
  %39 = load i8, ptr %38, align 1, !range !3, !noundef !4
  %40 = trunc nuw i8 %39 to i1
  br i1 %40, label %41, label %44

41:                                               ; preds = %35
  %42 = getelementptr inbounds nuw i8, ptr %31, i64 80
  %43 = load i32, ptr %42, align 8
  %.not.us = icmp eq i32 %43, %28
  br i1 %.not.us, label %44, label %48

44:                                               ; preds = %41, %35
  %45 = add i32 %.04044.us, 1
  %46 = sext i32 %.04044.us to i64
  %47 = getelementptr inbounds i32, ptr %23, i64 %46
  store i32 %28, ptr %47, align 4
  tail call fastcc void @maybe_send_schema(ptr noundef %0, ptr noundef %4, ptr noundef nonnull %26, ptr noundef nonnull %31)
  br label %48

48:                                               ; preds = %44, %41, %30, %.lr.ph.split.us
  %.1.us = phi i32 [ %45, %44 ], [ %.04044.us, %.lr.ph.split.us ], [ %.04044.us, %30 ], [ %.04044.us, %41 ]
  %indvars.iv.next49 = add nuw nsw i64 %indvars.iv48, 1
  %exitcond52.not = icmp eq i64 %indvars.iv.next49, %wide.trip.count51
  br i1 %exitcond52.not, label %._crit_edge, label %.lr.ph.split.us, !llvm.loop !7

.lr.ph.split:                                     ; preds = %.lr.ph, %76
  %indvars.iv = phi i64 [ %indvars.iv.next, %76 ], [ 0, %.lr.ph ]
  %.04044 = phi i32 [ %.1, %76 ], [ 0, %.lr.ph ]
  %49 = getelementptr inbounds nuw ptr, ptr %3, i64 %indvars.iv
  %50 = load ptr, ptr %49, align 8
  %51 = getelementptr inbounds nuw i8, ptr %50, i64 72
  %52 = load i32, ptr %51, align 8
  %53 = tail call zeroext i1 @is_publishable_relation(ptr noundef %50) #13
  br i1 %53, label %54, label %76

54:                                               ; preds = %.lr.ph.split
  %55 = tail call fastcc ptr @get_rel_sync_entry(ptr noundef nonnull %7, ptr noundef nonnull %50)
  %56 = getelementptr inbounds nuw i8, ptr %55, i64 27
  %57 = load i8, ptr %56, align 1, !range !3, !noundef !4
  %58 = trunc nuw i8 %57 to i1
  br i1 %58, label %59, label %76

59:                                               ; preds = %54
  %60 = getelementptr inbounds nuw i8, ptr %50, i64 56
  %61 = load ptr, ptr %60, align 8
  %62 = getelementptr inbounds nuw i8, ptr %61, i64 127
  %63 = load i8, ptr %62, align 1, !range !3, !noundef !4
  %64 = trunc nuw i8 %63 to i1
  br i1 %64, label %65, label %68

65:                                               ; preds = %59
  %66 = getelementptr inbounds nuw i8, ptr %55, i64 80
  %67 = load i32, ptr %66, align 8
  %.not = icmp eq i32 %67, %52
  br i1 %.not, label %68, label %76

68:                                               ; preds = %65, %59
  %69 = add i32 %.04044, 1
  %70 = sext i32 %.04044 to i64
  %71 = getelementptr inbounds i32, ptr %23, i64 %70
  store i32 %52, ptr %71, align 4
  %72 = load i8, ptr %.fr, align 1, !range !3, !noundef !4
  %73 = trunc nuw i8 %72 to i1
  br i1 %73, label %75, label %74

74:                                               ; preds = %68
  tail call fastcc void @pgoutput_send_begin(ptr noundef %0, ptr noundef %1)
  br label %75

75:                                               ; preds = %74, %68
  tail call fastcc void @maybe_send_schema(ptr noundef %0, ptr noundef %4, ptr noundef nonnull %50, ptr noundef nonnull %55)
  br label %76

76:                                               ; preds = %65, %54, %.lr.ph.split, %75
  %.1 = phi i32 [ %69, %75 ], [ %.04044, %.lr.ph.split ], [ %.04044, %54 ], [ %.04044, %65 ]
  %indvars.iv.next = add nuw nsw i64 %indvars.iv, 1
  %exitcond.not = icmp eq i64 %indvars.iv.next, %wide.trip.count51
  br i1 %exitcond.not, label %._crit_edge, label %.lr.ph.split, !llvm.loop !7

._crit_edge:                                      ; preds = %76, %48
  %.040.lcssa = phi i32 [ %.1.us, %48 ], [ %.1, %76 ]
  %77 = icmp sgt i32 %.040.lcssa, 0
  br i1 %77, label %78, label %._crit_edge.thread

78:                                               ; preds = %._crit_edge
  tail call void @OutputPluginPrepareWrite(ptr noundef %0, i1 noundef zeroext true) #13
  %79 = getelementptr inbounds nuw i8, ptr %0, i64 256
  %80 = load ptr, ptr %79, align 8
  %81 = getelementptr inbounds nuw i8, ptr %4, i64 40
  %82 = load i8, ptr %81, align 8, !range !3, !noundef !4
  %83 = trunc nuw i8 %82 to i1
  %84 = getelementptr inbounds nuw i8, ptr %4, i64 41
  %85 = load i8, ptr %84, align 1, !range !3, !noundef !4
  %86 = trunc nuw i8 %85 to i1
  tail call void @logicalrep_write_truncate(ptr noundef %80, i32 noundef %.041, i32 noundef %.040.lcssa, ptr noundef %23, i1 noundef zeroext %83, i1 noundef zeroext %86) #13
  tail call void @OutputPluginWrite(ptr noundef %0, i1 noundef zeroext true) #13
  br label %._crit_edge.thread

._crit_edge.thread:                               ; preds = %18, %78, %._crit_edge
  store ptr %20, ptr @CurrentMemoryContext, align 8
  %87 = load ptr, ptr %7, align 8
  tail call void @MemoryContextReset(ptr noundef %87) #13
  ret void
}